target datalayout = "e-m:e-p270:32:32-p271:32:32-p272:64:64-i64:64-i128:128-f80:128-n8:16:32:64-S128"
target triple = "x86_64-pc-linux-gnu"

; Function Attrs: nounwind uwtable
define i32 @wc_SignatureGetSize(i32 noundef %0, ptr noundef %1, i32 noundef %2) #0 {
  %4 = alloca i32, align 4
  %5 = alloca ptr, align 8
  %6 = alloca i32, align 4
  %7 = alloca i32, align 4
  store i32 %0, ptr %4, align 4, !tbaa !3
  store ptr %1, ptr %5, align 8, !tbaa !7
  store i32 %2, ptr %6, align 4, !tbaa !3
  call void @llvm.lifetime.start.p0(i64 4, ptr %7) #6
  store i32 -173, ptr %7, align 4, !tbaa !3
  %8 = load i32, ptr %4, align 4, !tbaa !3
  switch i32 %8, label %34 [
    i32 1, label %9
    i32 3, label %21
    i32 2, label %21
    i32 0, label %33
  ]

9:                                                ; preds = %3
  %10 = load i32, ptr %6, align 4, !tbaa !3
  %11 = zext i32 %10 to i64
  %12 = icmp uge i64 %11, 4208
  br i1 %12, label %13, label %16

13:                                               ; preds = %9
  %14 = load ptr, ptr %5, align 8, !tbaa !7
  %15 = call i32 @wc_ecc_sig_size(ptr noundef %14)
  store i32 %15, ptr %7, align 4, !tbaa !3
  br label %20

16:                                               ; preds = %9
  br label %17

17:                                               ; preds = %16
  br label %18

18:                                               ; preds = %17
  br label %19

19:                                               ; preds = %18
  br label %20

20:                                               ; preds = %19, %13
  br label %35

21:                                               ; preds = %3, %3
  %22 = load i32, ptr %6, align 4, !tbaa !3
  %23 = zext i32 %22 to i64
  %24 = icmp uge i64 %23, 8368
  br i1 %24, label %25, label %28

25:                                               ; preds = %21
  %26 = load ptr, ptr %5, align 8, !tbaa !7
  %27 = call i32 @wc_RsaEncryptSize(ptr noundef %26)
  store i32 %27, ptr %7, align 4, !tbaa !3
  br label %32

28:                                               ; preds = %21
  br label %29

29:                                               ; preds = %28
  br label %30

30:                                               ; preds = %29
  br label %31

31:                                               ; preds = %30
  br label %32

32:                                               ; preds = %31, %25
  br label %35

33:                                               ; preds = %3
  br label %34

34:                                               ; preds = %3, %33
  store i32 -173, ptr %7, align 4, !tbaa !3
  br label %35

35:                                               ; preds = %34, %32, %20
  %36 = load i32, ptr %7, align 4, !tbaa !3
  call void @llvm.lifetime.end.p0(i64 4, ptr %7) #6
  ret i32 %36
}

; Function Attrs: nounwind uwtable
define i32 @wc_SignatureGenerateHash_ex(i32 noundef %0, i32 noundef %1, ptr noundef %2, i32 noundef %3, ptr noundef %4, ptr noundef %5, ptr noundef %6, i32 noundef %7, ptr noundef %8, i32 noundef %9) #0 {
  %11 = alloca i32, align 4
  %12 = alloca i32, align 4
  %13 = alloca i32, align 4
  %14 = alloca ptr, align 8
  %15 = alloca i32, align 4
  %16 = alloca ptr, align 8
  %17 = alloca ptr, align 8
  %18 = alloca ptr, align 8
  %19 = alloca i32, align 4
  %20 = alloca ptr, align 8
  %21 = alloca i32, align 4
  %22 = alloca i32, align 4
  %23 = alloca i32, align 4
  store i32 %0, ptr %12, align 4, !tbaa !3
  store i32 %1, ptr %13, align 4, !tbaa !3
  store ptr %2, ptr %14, align 8, !tbaa !9
  store i32 %3, ptr %15, align 4, !tbaa !3
  store ptr %4, ptr %16, align 8, !tbaa !9
  store ptr %5, ptr %17, align 8, !tbaa !14
  store ptr %6, ptr %18, align 8, !tbaa !7
  store i32 %7, ptr %19, align 4, !tbaa !3
  store ptr %8, ptr %20, align 8, !tbaa !16
  store i32 %9, ptr %21, align 4, !tbaa !3
  call void @llvm.lifetime.start.p0(i64 4, ptr %22) #6
  %24 = load ptr, ptr %14, align 8, !tbaa !9
  %25 = icmp eq ptr %24, null
  br i1 %25, label %45, label %26

26:                                               ; preds = %10
  %27 = load i32, ptr %15, align 4, !tbaa !3
  %28 = icmp eq i32 %27, 0
  br i1 %28, label %45, label %29

29:                                               ; preds = %26
  %30 = load ptr, ptr %16, align 8, !tbaa !9
  %31 = icmp eq ptr %30, null
  br i1 %31, label %45, label %32

32:                                               ; preds = %29
  %33 = load ptr, ptr %17, align 8, !tbaa !14
  %34 = icmp eq ptr %33, null
  br i1 %34, label %45, label %35

35:                                               ; preds = %32
  %36 = load ptr, ptr %17, align 8, !tbaa !14
  %37 = load i32, ptr %36, align 4, !tbaa !3
  %38 = icmp eq i32 %37, 0
  br i1 %38, label %45, label %39

39:                                               ; preds = %35
  %40 = load ptr, ptr %18, align 8, !tbaa !7
  %41 = icmp eq ptr %40, null
  br i1 %41, label %45, label %42

42:                                               ; preds = %39
  %43 = load i32, ptr %19, align 4, !tbaa !3
  %44 = icmp eq i32 %43, 0
  br i1 %44, label %45, label %46

45:                                               ; preds = %42, %39, %35, %32, %29, %26, %10
  store i32 -173, ptr %11, align 4
  store i32 1, ptr %23, align 4
  br label %132

46:                                               ; preds = %42
  %47 = load ptr, ptr %17, align 8, !tbaa !14
  %48 = load i32, ptr %47, align 4, !tbaa !3
  %49 = load i32, ptr %13, align 4, !tbaa !3
  %50 = load ptr, ptr %18, align 8, !tbaa !7
  %51 = load i32, ptr %19, align 4, !tbaa !3
  %52 = call i32 @wc_SignatureGetSize(i32 noundef %49, ptr noundef %50, i32 noundef %51)
  %53 = icmp slt i32 %48, %52
  br i1 %53, label %54, label %58

54:                                               ; preds = %46
  br label %55

55:                                               ; preds = %54
  br label %56

56:                                               ; preds = %55
  br label %57

57:                                               ; preds = %56
  store i32 -173, ptr %11, align 4
  store i32 1, ptr %23, align 4
  br label %132

58:                                               ; preds = %46
  %59 = load i32, ptr %12, align 4, !tbaa !3
  %60 = call i32 @wc_HashGetDigestSize(i32 noundef %59)
  store i32 %60, ptr %22, align 4, !tbaa !3
  %61 = load i32, ptr %22, align 4, !tbaa !3
  %62 = icmp slt i32 %61, 0
  br i1 %62, label %63, label %68

63:                                               ; preds = %58
  br label %64

64:                                               ; preds = %63
  br label %65

65:                                               ; preds = %64
  br label %66

66:                                               ; preds = %65
  %67 = load i32, ptr %22, align 4, !tbaa !3
  store i32 %67, ptr %11, align 4
  store i32 1, ptr %23, align 4
  br label %132

68:                                               ; preds = %58
  store i32 0, ptr %22, align 4, !tbaa !3
  %69 = load i32, ptr %13, align 4, !tbaa !3
  switch i32 %69, label %112 [
    i32 1, label %70
    i32 3, label %87
    i32 2, label %87
    i32 0, label %111
  ]

70:                                               ; preds = %68
  br label %71

71:                                               ; preds = %83, %70
  %72 = load i32, ptr %22, align 4, !tbaa !3
  %73 = icmp sge i32 %72, 0
  br i1 %73, label %74, label %82

74:                                               ; preds = %71
  %75 = load ptr, ptr %14, align 8, !tbaa !9
  %76 = load i32, ptr %15, align 4, !tbaa !3
  %77 = load ptr, ptr %16, align 8, !tbaa !9
  %78 = load ptr, ptr %17, align 8, !tbaa !14
  %79 = load ptr, ptr %20, align 8, !tbaa !16
  %80 = load ptr, ptr %18, align 8, !tbaa !7
  %81 = call i32 @wc_ecc_sign_hash(ptr noundef %75, i32 noundef %76, ptr noundef %77, ptr noundef %78, ptr noundef %79, ptr noundef %80)
  store i32 %81, ptr %22, align 4, !tbaa !3
  br label %82

82:                                               ; preds = %74, %71
  br label %83

83:                                               ; preds = %82
  %84 = load i32, ptr %22, align 4, !tbaa !3
  %85 = icmp eq i32 %84, -108
  br i1 %85, label %71, label %86, !llvm.loop !18

86:                                               ; preds = %83
  br label %113

87:                                               ; preds = %68, %68
  br label %88

88:                                               ; preds = %101, %87
  %89 = load i32, ptr %22, align 4, !tbaa !3
  %90 = icmp sge i32 %89, 0
  br i1 %90, label %91, label %100

91:                                               ; preds = %88
  %92 = load ptr, ptr %14, align 8, !tbaa !9
  %93 = load i32, ptr %15, align 4, !tbaa !3
  %94 = load ptr, ptr %16, align 8, !tbaa !9
  %95 = load ptr, ptr %17, align 8, !tbaa !14
  %96 = load i32, ptr %95, align 4, !tbaa !3
  %97 = load ptr, ptr %18, align 8, !tbaa !7
  %98 = load ptr, ptr %20, align 8, !tbaa !16
  %99 = call i32 @wc_RsaSSL_Sign(ptr noundef %92, i32 noundef %93, ptr noundef %94, i32 noundef %96, ptr noundef %97, ptr noundef %98)
  store i32 %99, ptr %22, align 4, !tbaa !3
  br label %100

100:                                              ; preds = %91, %88
  br label %101

101:                                              ; preds = %100
  %102 = load i32, ptr %22, align 4, !tbaa !3
  %103 = icmp eq i32 %102, -108
  br i1 %103, label %88, label %104, !llvm.loop !19

104:                                              ; preds = %101
  %105 = load i32, ptr %22, align 4, !tbaa !3
  %106 = icmp sge i32 %105, 0
  br i1 %106, label %107, label %110

107:                                              ; preds = %104
  %108 = load i32, ptr %22, align 4, !tbaa !3
  %109 = load ptr, ptr %17, align 8, !tbaa !14
  store i32 %108, ptr %109, align 4, !tbaa !3
  store i32 0, ptr %22, align 4, !tbaa !3
  br label %110

110:                                              ; preds = %107, %104
  br label %113

111:                                              ; preds = %68
  br label %112

112:                                              ; preds = %68, %111
  store i32 -173, ptr %22, align 4, !tbaa !3
  br label %113

113:                                              ; preds = %112, %110, %86
  %114 = load i32, ptr %22, align 4, !tbaa !3
  %115 = icmp eq i32 %114, 0
  br i1 %115, label %116, label %130

116:                                              ; preds = %113
  %117 = load i32, ptr %21, align 4, !tbaa !3
  %118 = icmp ne i32 %117, 0
  br i1 %118, label %119, label %130

119:                                              ; preds = %116
  %120 = load i32, ptr %12, align 4, !tbaa !3
  %121 = load i32, ptr %13, align 4, !tbaa !3
  %122 = load ptr, ptr %14, align 8, !tbaa !9
  %123 = load i32, ptr %15, align 4, !tbaa !3
  %124 = load ptr, ptr %16, align 8, !tbaa !9
  %125 = load ptr, ptr %17, align 8, !tbaa !14
  %126 = load i32, ptr %125, align 4, !tbaa !3
  %127 = load ptr, ptr %18, align 8, !tbaa !7
  %128 = load i32, ptr %19, align 4, !tbaa !3
  %129 = call i32 @wc_SignatureVerifyHash(i32 noundef %120, i32 noundef %121, ptr noundef %122, i32 noundef %123, ptr noundef %124, i32 noundef %126, ptr noundef %127, i32 noundef %128)
  store i32 %129, ptr %22, align 4, !tbaa !3
  br label %130

130:                                              ; preds = %119, %116, %113
  %131 = load i32, ptr %22, align 4, !tbaa !3
  store i32 %131, ptr %11, align 4
  store i32 1, ptr %23, align 4
  br label %132

132:                                              ; preds = %130, %66, %57, %45
  call void @llvm.lifetime.end.p0(i64 4, ptr %22) #6
  %133 = load i32, ptr %11, align 4
  ret i32 %133
}