; Function Attrs: nounwind uwtable
define i32 @wc_SignatureGenerateHash_ex(i32 noundef %0, i32 noundef %1, ptr noundef %2, i32 noundef %3, ptr noundef %4, ptr noundef %5, ptr noundef %6, i32 noundef %7, ptr noundef %8, i32 noundef %9) local_unnamed_addr #0 {
  %11 = icmp eq ptr %2, null
  %12 = icmp eq i32 %3, 0
  %or.cond = or i1 %11, %12
  %13 = icmp eq ptr %4, null
  %or.cond3 = or i1 %or.cond, %13
  %14 = icmp eq ptr %5, null
  %or.cond5 = or i1 %or.cond3, %14
  br i1 %or.cond5, label %.thread, label %15

15:                                               ; preds = %10
  %16 = load i32, ptr %5, align 4, !tbaa !3
  %17 = icmp eq i32 %16, 0
  %18 = icmp eq ptr %6, null
  %or.cond7 = or i1 %18, %17
  %19 = icmp eq i32 %7, 0
  %or.cond9 = or i1 %19, %or.cond7
  br i1 %or.cond9, label %.thread, label %20

20:                                               ; preds = %15
  switch i32 %1, label %wc_SignatureGetSize.exit [
    i32 1, label %21
    i32 3, label %25
    i32 2, label %25
  ]

21:                                               ; preds = %20
  %22 = icmp ugt i32 %7, 4207
  br i1 %22, label %23, label %wc_SignatureGetSize.exit

23:                                               ; preds = %21
  %24 = tail call i32 @wc_ecc_sig_size(ptr noundef nonnull %6) #7
  br label %wc_SignatureGetSize.exit

25:                                               ; preds = %20, %20
  %26 = icmp ugt i32 %7, 8367
  br i1 %26, label %27, label %wc_SignatureGetSize.exit

27:                                               ; preds = %25
  %28 = tail call i32 @wc_RsaEncryptSize(ptr noundef nonnull %6) #7
  br label %wc_SignatureGetSize.exit

wc_SignatureGetSize.exit:                         ; preds = %20, %21, %23, %25, %27
  %.0.i = phi i32 [ %28, %27 ], [ -173, %25 ], [ %24, %23 ], [ -173, %21 ], [ -173, %20 ]
  %29 = icmp slt i32 %16, %.0.i
  br i1 %29, label %.thread, label %30

30:                                               ; preds = %wc_SignatureGetSize.exit
  %31 = tail call i32 @wc_HashGetDigestSize(i32 noundef %0) #7
  %32 = icmp slt i32 %31, 0
  br i1 %32, label %.thread, label %33

33:                                               ; preds = %30
  switch i32 %1, label %.thread [
    i32 1, label %.preheader
    i32 3, label %.preheader67
    i32 2, label %.preheader67
  ]

.preheader67:                                     ; preds = %33, %33
  br label %39

.preheader:                                       ; preds = %33, %37
  %34 = phi i1 [ false, %37 ], [ true, %33 ]
  %.0 = phi i32 [ -108, %37 ], [ 0, %33 ]
  br i1 %34, label %35, label %37

35:                                               ; preds = %.preheader
  %36 = tail call i32 @wc_ecc_sign_hash(ptr noundef %2, i32 noundef %3, ptr noundef %4, ptr noundef nonnull %5, ptr noundef %8, ptr noundef %6) #7
  br label %37

37:                                               ; preds = %.preheader, %35
  %.1 = phi i32 [ %36, %35 ], [ %.0, %.preheader ]
  %38 = icmp eq i32 %.1, -108
  br i1 %38, label %.preheader, label %.loopexit, !llvm.loop !13

39:                                               ; preds = %.preheader67, %44
  %40 = phi i1 [ false, %44 ], [ true, %.preheader67 ]
  %.3 = phi i32 [ -108, %44 ], [ 0, %.preheader67 ]
  br i1 %40, label %41, label %44

41:                                               ; preds = %39
  %42 = load i32, ptr %5, align 4, !tbaa !3
  %43 = tail call i32 @wc_RsaSSL_Sign(ptr noundef %2, i32 noundef %3, ptr noundef %4, i32 noundef %42, ptr noundef %6, ptr noundef %8) #7
  br label %44

44:                                               ; preds = %39, %41
  %.4 = phi i32 [ %43, %41 ], [ %.3, %39 ]
  %45 = icmp eq i32 %.4, -108
  br i1 %45, label %39, label %46, !llvm.loop !14

46:                                               ; preds = %44
  %47 = icmp sgt i32 %.4, -1
  br i1 %47, label %48, label %.thread

48:                                               ; preds = %46
  store i32 %.4, ptr %5, align 4, !tbaa !3
  br label %.loopexit

.loopexit:                                        ; preds = %37, %48
  %.2 = phi i32 [ 0, %48 ], [ %.1, %37 ]
  %49 = icmp eq i32 %.2, 0
  %50 = icmp ne i32 %9, 0
  %or.cond11 = and i1 %50, %49
  br i1 %or.cond11, label %51, label %.thread

51:                                               ; preds = %.loopexit
  %52 = load i32, ptr %5, align 4, !tbaa !3
  %53 = tail call i32 @wc_SignatureVerifyHash(i32 noundef %0, i32 noundef %1, ptr noundef %2, i32 noundef %3, ptr noundef %4, i32 noundef %52, ptr noundef %6, i32 noundef %7)
  br label %.thread

.thread:                                          ; preds = %33, %46, %.loopexit, %51, %30, %wc_SignatureGetSize.exit, %10, %15
  %.056 = phi i32 [ -173, %15 ], [ -173, %10 ], [ -173, %wc_SignatureGetSize.exit ], [ %31, %30 ], [ %53, %51 ], [ %.2, %.loopexit ], [ -173, %33 ], [ %.4, %46 ]
  ret i32 %.056
}